; Function Attrs: nounwind sspstrong uwtable
define dso_local i64 @rb_id2sym(i64 noundef %0) local_unnamed_addr #0 {
  %2 = and i64 %0, 1
  %3 = icmp eq i64 %2, 0
  %4 = icmp ugt i64 %0, 170
  %or.cond = and i1 %4, %3
  br i1 %or.cond, label %8, label %5

5:                                                ; preds = %1
  %6 = shl i64 %0, 8
  %7 = or disjoint i64 %6, 12
  br label %11

8:                                                ; preds = %1
  %9 = lshr i64 %0, 4
  %.0.i.i = trunc i64 %9 to i32
  %10 = tail call fastcc i64 @get_id_serial_entry(i32 noundef %.0.i.i, i32 noundef 1)
  br label %11

11:                                               ; preds = %8, %5
  %.0 = phi i64 [ %10, %8 ], [ %7, %5 ]
  ret i64 %.0
}